target datalayout = "e-m:e-p270:32:32-p271:32:32-p272:64:64-i64:64-i128:128-f80:128-n8:16:32:64-S128"
target triple = "x86_64-pc-linux-gnu"

%struct.H5S_t = type { %struct.H5S_extent_t, %struct.H5S_select_t }
%struct.H5S_extent_t = type { %struct.H5O_shared_t, i32, i32, i64, i32, ptr, ptr }
%struct.H5O_shared_t = type { i32, ptr, i32, %union.anon }
%union.anon = type { %struct.H5O_mesg_loc_t }
%struct.H5O_mesg_loc_t = type { i32, i64 }
%struct.H5S_select_t = type { ptr, i8, [32 x i64], i64, %union.anon.0 }
%union.anon.0 = type { ptr }

@H5S_init_g = global i8 0, align 1
@H5O_sdspace_ver_bounds = constant [7 x i32] [i32 1, i32 2, i32 2, i32 2, i32 2, i32 2, i32 2], align 16
@H5_libterm_g = external global i8, align 1
@.str.3 = private unnamed_addr constant [97 x i8] c"generated/home/dtcxzyw/WorkSpace/Projects/compilers/llvm-opt-benchmark/bench/hdf5/hdf5/src/H5S.c\00", align 1
@H5E_FUNC_g = external global i64, align 8
@H5E_CANTINIT_g = external global i64, align 8
@.str.4 = private unnamed_addr constant [32 x i8] c"interface initialization failed\00", align 1
@H5E_BADRANGE_g = external global i64, align 8
@__func__.H5S_set_version = private unnamed_addr constant [16 x i8] c"H5S_set_version\00", align 1
@H5E_DATASET_g = external global i64, align 8
@.str.65 = private unnamed_addr constant [32 x i8] c"Dataspace version out of bounds\00", align 1

; Function Attrs: nounwind uwtable
define i32 @H5S_set_version(ptr noundef %0, ptr noundef %1) #0 {
  %3 = alloca ptr, align 8
  %4 = alloca ptr, align 8
  %5 = alloca i32, align 4
  %6 = alloca i32, align 4
  %7 = alloca i8, align 1
  store ptr %0, ptr %3, align 8, !tbaa !47
  store ptr %1, ptr %4, align 8, !tbaa !13
  call void @llvm.lifetime.start.p0(i64 4, ptr %5) #7
  call void @llvm.lifetime.start.p0(i64 4, ptr %6) #7
  store i32 0, ptr %6, align 4, !tbaa !3
  call void @llvm.lifetime.start.p0(i64 1, ptr %7) #7
  store i8 0, ptr %7, align 1, !tbaa !7
  %8 = load i8, ptr @H5S_init_g, align 1, !tbaa !7, !range !9, !noundef !10
  %9 = trunc i8 %8 to i1
  br i1 %9, label %14, label %10

10:                                               ; preds = %2
  %11 = load i8, ptr @H5_libterm_g, align 1, !tbaa !7, !range !9, !noundef !10
  %12 = trunc i8 %11 to i1
  %13 = xor i1 %12, true
  br label %14

14:                                               ; preds = %10, %2
  %15 = phi i1 [ false, %2 ], [ %13, %10 ]
  %16 = xor i1 %15, true
  %17 = xor i1 %16, true
  %18 = zext i1 %17 to i32
  %19 = sext i32 %18 to i64
  %20 = call i64 @llvm.expect.i64(i64 %19, i64 0)
  %21 = icmp ne i64 %20, 0
  br i1 %21, label %22, label %45

22:                                               ; preds = %14
  store i8 1, ptr @H5S_init_g, align 1, !tbaa !7
  %23 = call i32 @H5S__init_package()
  %24 = icmp slt i32 %23, 0
  br i1 %24, label %25, label %44

25:                                               ; preds = %22
  store i8 0, ptr @H5S_init_g, align 1, !tbaa !7
  br label %26

26:                                               ; preds = %25
  br label %27

27:                                               ; preds = %26
  br label %28

28:                                               ; preds = %27
  %29 = load i64, ptr @H5E_FUNC_g, align 8, !tbaa !11
  %30 = load i64, ptr @H5E_CANTINIT_g, align 8, !tbaa !11
  %31 = call i32 (ptr, ptr, i32, i64, i64, ptr, ...) @H5E_printf_stack(ptr noundef @.str.3, ptr noundef @__func__.H5S_set_version, i32 noundef 1995, i64 noundef %29, i64 noundef %30, ptr noundef @.str.4)
  br label %32

32:                                               ; preds = %28
  br label %33

33:                                               ; preds = %32
  store i8 1, ptr %7, align 1, !tbaa !7
  %34 = load i8, ptr %7, align 1, !tbaa !7, !range !9, !noundef !10
  %35 = trunc i8 %34 to i1
  %36 = zext i1 %35 to i8
  store i8 %36, ptr %7, align 1, !tbaa !7
  br label %37

37:                                               ; preds = %33
  br label %38

38:                                               ; preds = %37
  br label %39

39:                                               ; preds = %38
  store i32 -1, ptr %6, align 4, !tbaa !3
  br label %115

40:                                               ; No predecessors!
  br label %41

41:                                               ; preds = %40
  br label %42

42:                                               ; preds = %41
  br label %43

43:                                               ; preds = %42
  br label %44

44:                                               ; preds = %43, %22
  br label %45

45:                                               ; preds = %44, %14
  %46 = load i8, ptr @H5S_init_g, align 1, !tbaa !7, !range !9, !noundef !10
  %47 = trunc i8 %46 to i1
  br i1 %47, label %52, label %48

48:                                               ; preds = %45
  %49 = load i8, ptr @H5_libterm_g, align 1, !tbaa !7, !range !9, !noundef !10
  %50 = trunc i8 %49 to i1
  %51 = xor i1 %50, true
  br label %52

52:                                               ; preds = %48, %45
  %53 = phi i1 [ true, %45 ], [ %51, %48 ]
  %54 = xor i1 %53, true
  %55 = xor i1 %54, true
  %56 = zext i1 %55 to i32
  %57 = sext i32 %56 to i64
  %58 = call i64 @llvm.expect.i64(i64 %57, i64 1)
  %59 = icmp ne i64 %58, 0
  br i1 %59, label %60, label %116

60:                                               ; preds = %52
  %61 = load ptr, ptr %4, align 8, !tbaa !13
  %62 = getelementptr inbounds nuw %struct.H5S_t, ptr %61, i32 0, i32 0
  %63 = getelementptr inbounds nuw %struct.H5S_extent_t, ptr %62, i32 0, i32 2
  %64 = load i32, ptr %63, align 4, !tbaa !23
  %65 = load ptr, ptr %3, align 8, !tbaa !47
  %66 = call i32 @H5F_get_low_bound(ptr noundef %65)
  %67 = sext i32 %66 to i64
  %68 = getelementptr inbounds [7 x i32], ptr @H5O_sdspace_ver_bounds, i64 0, i64 %67
  %69 = load i32, ptr %68, align 4, !tbaa !3
  %70 = icmp ugt i32 %64, %69
  br i1 %70, label %71, label %76

71:                                               ; preds = %60
  %72 = load ptr, ptr %4, align 8, !tbaa !13
  %73 = getelementptr inbounds nuw %struct.H5S_t, ptr %72, i32 0, i32 0
  %74 = getelementptr inbounds nuw %struct.H5S_extent_t, ptr %73, i32 0, i32 2
  %75 = load i32, ptr %74, align 4, !tbaa !23
  br label %82

76:                                               ; preds = %60
  %77 = load ptr, ptr %3, align 8, !tbaa !47
  %78 = call i32 @H5F_get_low_bound(ptr noundef %77)
  %79 = sext i32 %78 to i64
  %80 = getelementptr inbounds [7 x i32], ptr @H5O_sdspace_ver_bounds, i64 0, i64 %79
  %81 = load i32, ptr %80, align 4, !tbaa !3
  br label %82

82:                                               ; preds = %76, %71
  %83 = phi i32 [ %75, %71 ], [ %81, %76 ]
  store i32 %83, ptr %5, align 4, !tbaa !3
  %84 = load i32, ptr %5, align 4, !tbaa !3
  %85 = load ptr, ptr %3, align 8, !tbaa !47
  %86 = call i32 @H5F_get_high_bound(ptr noundef %85)
  %87 = sext i32 %86 to i64
  %88 = getelementptr inbounds [7 x i32], ptr @H5O_sdspace_ver_bounds, i64 0, i64 %87
  %89 = load i32, ptr %88, align 4, !tbaa !3
  %90 = icmp ugt i32 %84, %89
  br i1 %90, label %91, label %110

91:                                               ; preds = %82
  br label %92

92:                                               ; preds = %91
  br label %93

93:                                               ; preds = %92
  br label %94

94:                                               ; preds = %93
  %95 = load i64, ptr @H5E_DATASET_g, align 8, !tbaa !11
  %96 = load i64, ptr @H5E_BADRANGE_g, align 8, !tbaa !11
  %97 = call i32 (ptr, ptr, i32, i64, i64, ptr, ...) @H5E_printf_stack(ptr noundef @.str.3, ptr noundef @__func__.H5S_set_version, i32 noundef 2006, i64 noundef %95, i64 noundef %96, ptr noundef @.str.65)
  br label %98

98:                                               ; preds = %94
  br label %99

99:                                               ; preds = %98
  store i8 1, ptr %7, align 1, !tbaa !7
  %100 = load i8, ptr %7, align 1, !tbaa !7, !range !9, !noundef !10
  %101 = trunc i8 %100 to i1
  %102 = zext i1 %101 to i8
  store i8 %102, ptr %7, align 1, !tbaa !7
  br label %103

103:                                              ; preds = %99
  br label %104

104:                                              ; preds = %103
  br label %105

105:                                              ; preds = %104
  store i32 -1, ptr %6, align 4, !tbaa !3
  br label %115

106:                                              ; No predecessors!
  br label %107

107:                                              ; preds = %106
  br label %108

108:                                              ; preds = %107
  br label %109

109:                                              ; preds = %108
  br label %110

110:                                              ; preds = %109, %82
  %111 = load i32, ptr %5, align 4, !tbaa !3
  %112 = load ptr, ptr %4, align 8, !tbaa !13
  %113 = getelementptr inbounds nuw %struct.H5S_t, ptr %112, i32 0, i32 0
  %114 = getelementptr inbounds nuw %struct.H5S_extent_t, ptr %113, i32 0, i32 2
  store i32 %111, ptr %114, align 4, !tbaa !23
  br label %115

115:                                              ; preds = %110, %105, %39
  br label %116

116:                                              ; preds = %115, %52
  %117 = load i32, ptr %6, align 4, !tbaa !3
  call void @llvm.lifetime.end.p0(i64 1, ptr %7) #7
  call void @llvm.lifetime.end.p0(i64 4, ptr %6) #7
  call void @llvm.lifetime.end.p0(i64 4, ptr %5) #7
  ret i32 %117
}