; Function Attrs: nounwind uwtable
define range(i32 -1, 1) i32 @H5S_set_version(ptr noundef %0, ptr noundef captures(none) %1) local_unnamed_addr #0 {
  %3 = load i8, ptr @H5S_init_g, align 1, !tbaa !3, !range !7, !noundef !8
  %4 = trunc nuw i8 %3 to i1
  %5 = load i8, ptr @H5_libterm_g, align 1, !range !7
  %6 = trunc nuw i8 %5 to i1
  %7 = select i1 %4, i1 true, i1 %6
  br i1 %7, label %15, label %8, !prof !9

8:                                                ; preds = %2
  store i8 1, ptr @H5S_init_g, align 1, !tbaa !3
  %9 = tail call i32 @H5S__init_package()
  %10 = icmp slt i32 %9, 0
  br i1 %10, label %11, label %._crit_edge

._crit_edge:                                      ; preds = %8
  %.pre = load i8, ptr @H5S_init_g, align 1, !tbaa !3, !range !7
  %.pre11 = load i8, ptr @H5_libterm_g, align 1, !range !7
  %.pre12 = trunc nuw i8 %.pre to i1
  %.pre13 = trunc nuw i8 %.pre11 to i1
  br label %15

11:                                               ; preds = %8
  store i8 0, ptr @H5S_init_g, align 1, !tbaa !3
  %12 = load i64, ptr @H5E_FUNC_g, align 8, !tbaa !10
  %13 = load i64, ptr @H5E_CANTINIT_g, align 8, !tbaa !10
  %14 = tail call i32 (ptr, ptr, i32, i64, i64, ptr, ...) @H5E_printf_stack(ptr noundef nonnull @.str.3, ptr noundef nonnull @__func__.H5S_set_version, i32 noundef 1995, i64 noundef %12, i64 noundef %13, ptr noundef nonnull @.str.4) #10
  br label %42

15:                                               ; preds = %._crit_edge, %2
  %.pre-phi14 = phi i1 [ %.pre13, %._crit_edge ], [ %6, %2 ]
  %.pre-phi = phi i1 [ %.pre12, %._crit_edge ], [ %4, %2 ]
  %16 = xor i1 %.pre-phi14, true
  %17 = select i1 %.pre-phi, i1 true, i1 %16
  br i1 %17, label %18, label %42, !prof !9

18:                                               ; preds = %15
  %19 = getelementptr inbounds nuw i8, ptr %1, i64 44
  %20 = load i32, ptr %19, align 4, !tbaa !22
  %21 = tail call i32 @H5F_get_low_bound(ptr noundef %0) #10
  %22 = sext i32 %21 to i64
  %23 = getelementptr inbounds [7 x i32], ptr @H5O_sdspace_ver_bounds, i64 0, i64 %22
  %24 = load i32, ptr %23, align 4, !tbaa !62
  %25 = icmp ugt i32 %20, %24
  br i1 %25, label %30, label %26

26:                                               ; preds = %18
  %27 = tail call i32 @H5F_get_low_bound(ptr noundef %0) #10
  %28 = sext i32 %27 to i64
  %29 = getelementptr inbounds [7 x i32], ptr @H5O_sdspace_ver_bounds, i64 0, i64 %28
  br label %30

30:                                               ; preds = %18, %26
  %.in = phi ptr [ %29, %26 ], [ %19, %18 ]
  %31 = load i32, ptr %.in, align 4, !tbaa !62
  %32 = tail call i32 @H5F_get_high_bound(ptr noundef %0) #10
  %33 = sext i32 %32 to i64
  %34 = getelementptr inbounds [7 x i32], ptr @H5O_sdspace_ver_bounds, i64 0, i64 %33
  %35 = load i32, ptr %34, align 4, !tbaa !62
  %36 = icmp ugt i32 %31, %35
  br i1 %36, label %37, label %41

37:                                               ; preds = %30
  %38 = load i64, ptr @H5E_DATASET_g, align 8, !tbaa !10
  %39 = load i64, ptr @H5E_BADRANGE_g, align 8, !tbaa !10
  %40 = tail call i32 (ptr, ptr, i32, i64, i64, ptr, ...) @H5E_printf_stack(ptr noundef nonnull @.str.3, ptr noundef nonnull @__func__.H5S_set_version, i32 noundef 2006, i64 noundef %38, i64 noundef %39, ptr noundef nonnull @.str.65) #10
  br label %42

41:                                               ; preds = %30
  store i32 %31, ptr %19, align 4, !tbaa !22
  br label %42

42:                                               ; preds = %11, %37, %41, %15
  %.0 = phi i32 [ -1, %11 ], [ -1, %37 ], [ 0, %41 ], [ 0, %15 ]
  ret i32 %.0
}